target datalayout = "e-m:e-p270:32:32-p271:32:32-p272:64:64-i64:64-i128:128-f80:128-n8:16:32:64-S128"
target triple = "x86_64-pc-linux-gnu"

%union.pthread_mutex_t = type { %struct.__pthread_mutex_s }
%struct.__pthread_mutex_s = type { i32, i32, i32, i32, i32, i16, i16, %struct.__pthread_internal_list }
%struct.__pthread_internal_list = type { ptr, ptr }
%struct.itemstats_t = type { i64, i64, i64, i64, i64, i64, i64, i64, i64, i64, i64, i64, i64, i64, i64, i64, i64, i64, i64, i64, i32 }
%struct.settings = type { i64, i32, i32, i32, ptr, i32, i32, i32, ptr, ptr, i32, double, i32, i32, i32, i8, i32, i32, i8, i32, i32, i32, i32, i32, i32, i8, i8, i8, i8, i8, i8, i8, i32, i32, double, double, i32, i32, i8, i32, i8, i8, ptr, i32, i32, i32, i32, double, double, i32, i8, i32, i32, i32, i32, i32, i8, i8, i8, ptr, i32, i32, i32, i32, i32, i32, i32, i32, i32, i32, double, i8, i32, i32, ptr, i32 }
%struct._stritem = type { ptr, ptr, ptr, i32, i32, i32, i16, i16, i8, i8, [0 x %union.anon] }
%union.anon = type { i64 }

@lru_locks = external global [256 x %union.pthread_mutex_t], align 16
@itemstats = internal global [256 x %struct.itemstats_t] zeroinitializer, align 16
@settings = external global %struct.settings, align 8
@current_time = external global i32, align 4
@sizes = internal global [256 x i32] zeroinitializer, align 16
@heads = internal global [256 x ptr] zeroinitializer, align 16
@tails = internal global [256 x ptr] zeroinitializer, align 16
@sizes_bytes = internal global [256 x i64] zeroinitializer, align 16

; Function Attrs: nounwind uwtable
define internal void @do_item_link_q(ptr noundef %0) #0 {
  %2 = alloca ptr, align 8
  %3 = alloca ptr, align 8
  %4 = alloca ptr, align 8
  store ptr %0, ptr %2, align 8, !tbaa !16
  call void @llvm.lifetime.start.p0(i64 8, ptr %3) #9
  call void @llvm.lifetime.start.p0(i64 8, ptr %4) #9
  %5 = load ptr, ptr %2, align 8, !tbaa !16
  %6 = getelementptr inbounds nuw %struct._stritem, ptr %5, i32 0, i32 8
  %7 = load i8, ptr %6, align 8, !tbaa !30
  %8 = zext i8 %7 to i64
  %9 = getelementptr inbounds nuw [256 x ptr], ptr @heads, i64 0, i64 %8
  store ptr %9, ptr %3, align 8, !tbaa !70
  %10 = load ptr, ptr %2, align 8, !tbaa !16
  %11 = getelementptr inbounds nuw %struct._stritem, ptr %10, i32 0, i32 8
  %12 = load i8, ptr %11, align 8, !tbaa !30
  %13 = zext i8 %12 to i64
  %14 = getelementptr inbounds nuw [256 x ptr], ptr @tails, i64 0, i64 %13
  store ptr %14, ptr %4, align 8, !tbaa !70
  %15 = load ptr, ptr %2, align 8, !tbaa !16
  %16 = getelementptr inbounds nuw %struct._stritem, ptr %15, i32 0, i32 1
  store ptr null, ptr %16, align 8, !tbaa !16
  %17 = load ptr, ptr %3, align 8, !tbaa !70
  %18 = load ptr, ptr %17, align 8, !tbaa !16
  %19 = load ptr, ptr %2, align 8, !tbaa !16
  %20 = getelementptr inbounds nuw %struct._stritem, ptr %19, i32 0, i32 0
  store ptr %18, ptr %20, align 8, !tbaa !16
  %21 = load ptr, ptr %2, align 8, !tbaa !16
  %22 = getelementptr inbounds nuw %struct._stritem, ptr %21, i32 0, i32 0
  %23 = load ptr, ptr %22, align 8, !tbaa !16
  %24 = icmp ne ptr %23, null
  br i1 %24, label %25, label %31

25:                                               ; preds = %1
  %26 = load ptr, ptr %2, align 8, !tbaa !16
  %27 = load ptr, ptr %2, align 8, !tbaa !16
  %28 = getelementptr inbounds nuw %struct._stritem, ptr %27, i32 0, i32 0
  %29 = load ptr, ptr %28, align 8, !tbaa !16
  %30 = getelementptr inbounds nuw %struct._stritem, ptr %29, i32 0, i32 1
  store ptr %26, ptr %30, align 8, !tbaa !16
  br label %31

31:                                               ; preds = %25, %1
  %32 = load ptr, ptr %2, align 8, !tbaa !16
  %33 = load ptr, ptr %3, align 8, !tbaa !70
  store ptr %32, ptr %33, align 8, !tbaa !16
  %34 = load ptr, ptr %4, align 8, !tbaa !70
  %35 = load ptr, ptr %34, align 8, !tbaa !16
  %36 = icmp eq ptr %35, null
  br i1 %36, label %37, label %40

37:                                               ; preds = %31
  %38 = load ptr, ptr %2, align 8, !tbaa !16
  %39 = load ptr, ptr %4, align 8, !tbaa !70
  store ptr %38, ptr %39, align 8, !tbaa !16
  br label %40

40:                                               ; preds = %37, %31
  %41 = load ptr, ptr %2, align 8, !tbaa !16
  %42 = getelementptr inbounds nuw %struct._stritem, ptr %41, i32 0, i32 8
  %43 = load i8, ptr %42, align 8, !tbaa !30
  %44 = zext i8 %43 to i64
  %45 = getelementptr inbounds nuw [256 x i32], ptr @sizes, i64 0, i64 %44
  %46 = load i32, ptr %45, align 4, !tbaa !4
  %47 = add i32 %46, 1
  store i32 %47, ptr %45, align 4, !tbaa !4
  %48 = load ptr, ptr %2, align 8, !tbaa !16
  %49 = getelementptr inbounds nuw %struct._stritem, ptr %48, i32 0, i32 7
  %50 = load i16, ptr %49, align 2, !tbaa !34
  %51 = zext i16 %50 to i32
  %52 = and i32 %51, 128
  %53 = icmp ne i32 %52, 0
  br i1 %53, label %54, label %95

54:                                               ; preds = %40
  %55 = load ptr, ptr %2, align 8, !tbaa !16
  %56 = getelementptr inbounds nuw %struct._stritem, ptr %55, i32 0, i32 9
  %57 = load i8, ptr %56, align 1, !tbaa !30
  %58 = zext i8 %57 to i64
  %59 = add i64 48, %58
  %60 = add i64 %59, 1
  %61 = load ptr, ptr %2, align 8, !tbaa !16
  %62 = getelementptr inbounds nuw %struct._stritem, ptr %61, i32 0, i32 5
  %63 = load i32, ptr %62, align 8, !tbaa !4
  %64 = sext i32 %63 to i64
  %65 = add i64 %60, %64
  %66 = load ptr, ptr %2, align 8, !tbaa !16
  %67 = getelementptr inbounds nuw %struct._stritem, ptr %66, i32 0, i32 7
  %68 = load i16, ptr %67, align 2, !tbaa !34
  %69 = zext i16 %68 to i32
  %70 = and i32 %69, 256
  %71 = icmp ne i32 %70, 0
  %72 = select i1 %71, i64 4, i64 0
  %73 = add i64 %65, %72
  %74 = load ptr, ptr %2, align 8, !tbaa !16
  %75 = getelementptr inbounds nuw %struct._stritem, ptr %74, i32 0, i32 7
  %76 = load i16, ptr %75, align 2, !tbaa !34
  %77 = zext i16 %76 to i32
  %78 = and i32 %77, 2
  %79 = icmp ne i32 %78, 0
  %80 = select i1 %79, i64 8, i64 0
  %81 = add i64 %73, %80
  %82 = load ptr, ptr %2, align 8, !tbaa !16
  %83 = getelementptr inbounds nuw %struct._stritem, ptr %82, i32 0, i32 5
  %84 = load i32, ptr %83, align 8, !tbaa !4
  %85 = sext i32 %84 to i64
  %86 = sub i64 %81, %85
  %87 = add i64 %86, 12
  %88 = load ptr, ptr %2, align 8, !tbaa !16
  %89 = getelementptr inbounds nuw %struct._stritem, ptr %88, i32 0, i32 8
  %90 = load i8, ptr %89, align 8, !tbaa !30
  %91 = zext i8 %90 to i64
  %92 = getelementptr inbounds nuw [256 x i64], ptr @sizes_bytes, i64 0, i64 %91
  %93 = load i64, ptr %92, align 8, !tbaa !10
  %94 = add i64 %93, %87
  store i64 %94, ptr %92, align 8, !tbaa !10
  br label %130

95:                                               ; preds = %40
  %96 = load ptr, ptr %2, align 8, !tbaa !16
  %97 = getelementptr inbounds nuw %struct._stritem, ptr %96, i32 0, i32 9
  %98 = load i8, ptr %97, align 1, !tbaa !30
  %99 = zext i8 %98 to i64
  %100 = add i64 48, %99
  %101 = add i64 %100, 1
  %102 = load ptr, ptr %2, align 8, !tbaa !16
  %103 = getelementptr inbounds nuw %struct._stritem, ptr %102, i32 0, i32 5
  %104 = load i32, ptr %103, align 8, !tbaa !4
  %105 = sext i32 %104 to i64
  %106 = add i64 %101, %105
  %107 = load ptr, ptr %2, align 8, !tbaa !16
  %108 = getelementptr inbounds nuw %struct._stritem, ptr %107, i32 0, i32 7
  %109 = load i16, ptr %108, align 2, !tbaa !34
  %110 = zext i16 %109 to i32
  %111 = and i32 %110, 256
  %112 = icmp ne i32 %111, 0
  %113 = select i1 %112, i64 4, i64 0
  %114 = add i64 %106, %113
  %115 = load ptr, ptr %2, align 8, !tbaa !16
  %116 = getelementptr inbounds nuw %struct._stritem, ptr %115, i32 0, i32 7
  %117 = load i16, ptr %116, align 2, !tbaa !34
  %118 = zext i16 %117 to i32
  %119 = and i32 %118, 2
  %120 = icmp ne i32 %119, 0
  %121 = select i1 %120, i64 8, i64 0
  %122 = add i64 %114, %121
  %123 = load ptr, ptr %2, align 8, !tbaa !16
  %124 = getelementptr inbounds nuw %struct._stritem, ptr %123, i32 0, i32 8
  %125 = load i8, ptr %124, align 8, !tbaa !30
  %126 = zext i8 %125 to i64
  %127 = getelementptr inbounds nuw [256 x i64], ptr @sizes_bytes, i64 0, i64 %126
  %128 = load i64, ptr %127, align 8, !tbaa !10
  %129 = add i64 %128, %122
  store i64 %129, ptr %127, align 8, !tbaa !10
  br label %130

130:                                              ; preds = %95, %54
  call void @llvm.lifetime.end.p0(i64 8, ptr %4) #9
  call void @llvm.lifetime.end.p0(i64 8, ptr %3) #9
  ret void
}

; Function Attrs: nounwind uwtable
define internal void @item_link_q_warm(ptr noundef %0) #0 {
  %2 = alloca ptr, align 8
  store ptr %0, ptr %2, align 8, !tbaa !16
  %3 = load ptr, ptr %2, align 8, !tbaa !16
  %4 = getelementptr inbounds nuw %struct._stritem, ptr %3, i32 0, i32 8
  %5 = load i8, ptr %4, align 8, !tbaa !30
  %6 = zext i8 %5 to i64
  %7 = getelementptr inbounds nuw [256 x %union.pthread_mutex_t], ptr @lru_locks, i64 0, i64 %6
  %8 = call i32 @pthread_mutex_lock(ptr noundef %7) #9
  %9 = load ptr, ptr %2, align 8, !tbaa !16
  call void @do_item_link_q(ptr noundef %9)
  %10 = load ptr, ptr %2, align 8, !tbaa !16
  %11 = getelementptr inbounds nuw %struct._stritem, ptr %10, i32 0, i32 8
  %12 = load i8, ptr %11, align 8, !tbaa !30
  %13 = zext i8 %12 to i64
  %14 = getelementptr inbounds nuw [256 x %struct.itemstats_t], ptr @itemstats, i64 0, i64 %13
  %15 = getelementptr inbounds nuw %struct.itemstats_t, ptr %14, i32 0, i32 12
  %16 = load i64, ptr %15, align 8, !tbaa !43
  %17 = add i64 %16, 1
  store i64 %17, ptr %15, align 8, !tbaa !43
  %18 = load ptr, ptr %2, align 8, !tbaa !16
  %19 = getelementptr inbounds nuw %struct._stritem, ptr %18, i32 0, i32 8
  %20 = load i8, ptr %19, align 8, !tbaa !30
  %21 = zext i8 %20 to i64
  %22 = getelementptr inbounds nuw [256 x %union.pthread_mutex_t], ptr @lru_locks, i64 0, i64 %21
  %23 = call i32 @pthread_mutex_unlock(ptr noundef %22) #9
  ret void
}

; Function Attrs: nounwind uwtable
define dso_local void @do_item_update(ptr noundef %0) #0 {
  %2 = alloca ptr, align 8
  store ptr %0, ptr %2, align 8, !tbaa !16
  %3 = load i8, ptr getelementptr inbounds nuw (%struct.settings, ptr @settings, i32 0, i32 29), align 8, !tbaa !25, !range !26, !noundef !27
  %4 = trunc i8 %3 to i1
  br i1 %4, label %5, label %58

5:                                                ; preds = %1
  %6 = load ptr, ptr %2, align 8, !tbaa !16
  %7 = getelementptr inbounds nuw %struct._stritem, ptr %6, i32 0, i32 7
  %8 = load i16, ptr %7, align 2, !tbaa !34
  %9 = zext i16 %8 to i32
  %10 = and i32 %9, 1
  %11 = icmp ne i32 %10, 0
  br i1 %11, label %12, label %57

12:                                               ; preds = %5
  %13 = load ptr, ptr %2, align 8, !tbaa !16
  %14 = getelementptr inbounds nuw %struct._stritem, ptr %13, i32 0, i32 8
  %15 = load i8, ptr %14, align 8, !tbaa !30
  %16 = zext i8 %15 to i32
  %17 = and i32 %16, 192
  %18 = icmp eq i32 %17, 128
  br i1 %18, label %19, label %52

19:                                               ; preds = %12
  %20 = load ptr, ptr %2, align 8, !tbaa !16
  %21 = getelementptr inbounds nuw %struct._stritem, ptr %20, i32 0, i32 7
  %22 = load i16, ptr %21, align 2, !tbaa !34
  %23 = zext i16 %22 to i32
  %24 = and i32 %23, 16
  %25 = icmp ne i32 %24, 0
  br i1 %25, label %26, label %52

26:                                               ; preds = %19
  %27 = load volatile i32, ptr @current_time, align 4, !tbaa !4
  %28 = load ptr, ptr %2, align 8, !tbaa !16
  %29 = getelementptr inbounds nuw %struct._stritem, ptr %28, i32 0, i32 3
  store i32 %27, ptr %29, align 8, !tbaa !4
  %30 = load ptr, ptr %2, align 8, !tbaa !16
  call void @item_unlink_q(ptr noundef %30)
  %31 = load ptr, ptr %2, align 8, !tbaa !16
  %32 = getelementptr inbounds nuw %struct._stritem, ptr %31, i32 0, i32 8
  %33 = load i8, ptr %32, align 8, !tbaa !30
  %34 = zext i8 %33 to i32
  %35 = and i32 %34, -193
  %36 = trunc i32 %35 to i8
  %37 = load ptr, ptr %2, align 8, !tbaa !16
  %38 = getelementptr inbounds nuw %struct._stritem, ptr %37, i32 0, i32 8
  store i8 %36, ptr %38, align 8, !tbaa !30
  %39 = load ptr, ptr %2, align 8, !tbaa !16
  %40 = getelementptr inbounds nuw %struct._stritem, ptr %39, i32 0, i32 8
  %41 = load i8, ptr %40, align 8, !tbaa !30
  %42 = zext i8 %41 to i32
  %43 = or i32 %42, 64
  %44 = trunc i32 %43 to i8
  store i8 %44, ptr %40, align 8, !tbaa !30
  %45 = load ptr, ptr %2, align 8, !tbaa !16
  %46 = getelementptr inbounds nuw %struct._stritem, ptr %45, i32 0, i32 7
  %47 = load i16, ptr %46, align 2, !tbaa !34
  %48 = zext i16 %47 to i32
  %49 = and i32 %48, -17
  %50 = trunc i32 %49 to i16
  store i16 %50, ptr %46, align 2, !tbaa !34
  %51 = load ptr, ptr %2, align 8, !tbaa !16
  call void @item_link_q_warm(ptr noundef %51)
  br label %56

52:                                               ; preds = %19, %12
  %53 = load volatile i32, ptr @current_time, align 4, !tbaa !4
  %54 = load ptr, ptr %2, align 8, !tbaa !16
  %55 = getelementptr inbounds nuw %struct._stritem, ptr %54, i32 0, i32 3
  store i32 %53, ptr %55, align 8, !tbaa !4
  br label %56

56:                                               ; preds = %52, %26
  br label %57

57:                                               ; preds = %56, %5
  br label %80

58:                                               ; preds = %1
  %59 = load ptr, ptr %2, align 8, !tbaa !16
  %60 = getelementptr inbounds nuw %struct._stritem, ptr %59, i32 0, i32 3
  %61 = load i32, ptr %60, align 8, !tbaa !4
  %62 = load volatile i32, ptr @current_time, align 4, !tbaa !4
  %63 = sub i32 %62, 60
  %64 = icmp ult i32 %61, %63
  br i1 %64, label %65, label %79

65:                                               ; preds = %58
  %66 = load ptr, ptr %2, align 8, !tbaa !16
  %67 = getelementptr inbounds nuw %struct._stritem, ptr %66, i32 0, i32 7
  %68 = load i16, ptr %67, align 2, !tbaa !34
  %69 = zext i16 %68 to i32
  %70 = and i32 %69, 1
  %71 = icmp ne i32 %70, 0
  br i1 %71, label %72, label %78

72:                                               ; preds = %65
  %73 = load volatile i32, ptr @current_time, align 4, !tbaa !4
  %74 = load ptr, ptr %2, align 8, !tbaa !16
  %75 = getelementptr inbounds nuw %struct._stritem, ptr %74, i32 0, i32 3
  store i32 %73, ptr %75, align 8, !tbaa !4
  %76 = load ptr, ptr %2, align 8, !tbaa !16
  call void @item_unlink_q(ptr noundef %76)
  %77 = load ptr, ptr %2, align 8, !tbaa !16
  call void @item_link_q(ptr noundef %77)
  br label %78

78:                                               ; preds = %72, %65
  br label %79

79:                                               ; preds = %78, %58
  br label %80

80:                                               ; preds = %79, %57
  ret void
}