; Function Attrs: nounwind uwtable
define dso_local void @do_item_update(ptr noundef %0) local_unnamed_addr #0 {
  %2 = load i8, ptr getelementptr inbounds nuw (i8, ptr @settings, i64 136), align 8, !tbaa !23, !range !24, !noundef !25
  %3 = trunc nuw i8 %2 to i1
  br i1 %3, label %4, label %80

4:                                                ; preds = %1
  %5 = getelementptr inbounds nuw i8, ptr %0, i64 38
  %6 = load i16, ptr %5, align 2, !tbaa !31
  %7 = zext i16 %6 to i32
  %8 = and i32 %7, 1
  %.not16 = icmp eq i32 %8, 0
  br i1 %.not16, label %92, label %9

9:                                                ; preds = %4
  %10 = getelementptr inbounds nuw i8, ptr %0, i64 40
  %11 = load i8, ptr %10, align 8, !tbaa !30
  %12 = icmp sgt i8 %11, -65
  %13 = and i32 %7, 16
  %.not17 = icmp eq i32 %13, 0
  %or.cond = or i1 %.not17, %12
  %14 = load volatile i32, ptr @current_time, align 4, !tbaa !22
  %15 = getelementptr inbounds nuw i8, ptr %0, i64 24
  store i32 %14, ptr %15, align 8, !tbaa !22
  br i1 %or.cond, label %92, label %16

16:                                               ; preds = %9
  tail call fastcc void @item_unlink_q(ptr noundef nonnull %0)
  %17 = load i8, ptr %10, align 8, !tbaa !30
  %18 = and i8 %17, 63
  %19 = or disjoint i8 %18, 64
  store i8 %19, ptr %10, align 8, !tbaa !30
  %20 = load i16, ptr %5, align 2, !tbaa !31
  %21 = and i16 %20, -17
  store i16 %21, ptr %5, align 2, !tbaa !31
  %22 = zext nneg i8 %19 to i64
  %23 = getelementptr inbounds nuw [256 x %union.pthread_mutex_t], ptr @lru_locks, i64 0, i64 %22
  %24 = tail call i32 @pthread_mutex_lock(ptr noundef nonnull %23) #19
  %25 = load i8, ptr %10, align 8, !tbaa !30
  %26 = zext i8 %25 to i64
  %27 = getelementptr inbounds nuw [256 x ptr], ptr @heads, i64 0, i64 %26
  %28 = getelementptr inbounds nuw [256 x ptr], ptr @tails, i64 0, i64 %26
  %29 = getelementptr inbounds nuw i8, ptr %0, i64 8
  store ptr null, ptr %29, align 8, !tbaa !28
  %30 = load ptr, ptr %27, align 8, !tbaa !28
  store ptr %30, ptr %0, align 8, !tbaa !28
  %.not.i.i = icmp eq ptr %30, null
  br i1 %.not.i.i, label %33, label %31

31:                                               ; preds = %16
  %32 = getelementptr inbounds nuw i8, ptr %30, i64 8
  store ptr %0, ptr %32, align 8, !tbaa !28
  br label %33

33:                                               ; preds = %31, %16
  store ptr %0, ptr %27, align 8, !tbaa !28
  %34 = load ptr, ptr %28, align 8, !tbaa !28
  %35 = icmp eq ptr %34, null
  br i1 %35, label %36, label %37

36:                                               ; preds = %33
  store ptr %0, ptr %28, align 8, !tbaa !28
  br label %37

37:                                               ; preds = %36, %33
  %38 = load i8, ptr %10, align 8, !tbaa !30
  %39 = zext i8 %38 to i64
  %40 = getelementptr inbounds nuw [256 x i32], ptr @sizes, i64 0, i64 %39
  %41 = load i32, ptr %40, align 4, !tbaa !22
  %42 = add i32 %41, 1
  store i32 %42, ptr %40, align 4, !tbaa !22
  %43 = load i16, ptr %5, align 2, !tbaa !31
  %44 = zext i16 %43 to i32
  %45 = and i32 %44, 128
  %.not26.i.i = icmp eq i32 %45, 0
  %46 = getelementptr inbounds nuw i8, ptr %0, i64 41
  %47 = load i8, ptr %46, align 1, !tbaa !30
  %48 = zext i8 %47 to i64
  br i1 %.not26.i.i, label %59, label %49

49:                                               ; preds = %37
  %50 = lshr i32 %44, 6
  %51 = and i32 %50, 4
  %52 = shl nuw nsw i32 %44, 2
  %53 = and i32 %52, 8
  %54 = getelementptr inbounds nuw [256 x i64], ptr @sizes_bytes, i64 0, i64 %39
  %55 = load i64, ptr %54, align 8, !tbaa !14
  %narrow.i.i = add nuw nsw i32 %51, 61
  %narrow31.i.i = add nuw nsw i32 %narrow.i.i, %53
  %56 = zext nneg i32 %narrow31.i.i to i64
  %57 = add nuw nsw i64 %56, %48
  %58 = add i64 %57, %55
  store i64 %58, ptr %54, align 8, !tbaa !14
  br label %item_link_q_warm.exit

59:                                               ; preds = %37
  %60 = getelementptr inbounds nuw i8, ptr %0, i64 32
  %61 = load i32, ptr %60, align 8, !tbaa !22
  %62 = sext i32 %61 to i64
  %63 = lshr i32 %44, 6
  %64 = and i32 %63, 4
  %65 = shl nuw nsw i32 %44, 2
  %66 = and i32 %65, 8
  %67 = getelementptr inbounds nuw [256 x i64], ptr @sizes_bytes, i64 0, i64 %39
  %68 = load i64, ptr %67, align 8, !tbaa !14
  %69 = or disjoint i32 %64, %66
  %70 = or disjoint i32 %69, 49
  %71 = zext nneg i32 %70 to i64
  %72 = add nuw nsw i64 %71, %48
  %73 = add nsw i64 %72, %62
  %74 = add i64 %73, %68
  store i64 %74, ptr %67, align 8, !tbaa !14
  br label %item_link_q_warm.exit

item_link_q_warm.exit:                            ; preds = %49, %59
  %75 = getelementptr inbounds nuw [256 x %struct.itemstats_t], ptr @itemstats, i64 0, i64 %39, i32 12
  %76 = load i64, ptr %75, align 8, !tbaa !41
  %77 = add i64 %76, 1
  store i64 %77, ptr %75, align 8, !tbaa !41
  %78 = getelementptr inbounds nuw [256 x %union.pthread_mutex_t], ptr @lru_locks, i64 0, i64 %39
  %79 = tail call i32 @pthread_mutex_unlock(ptr noundef nonnull %78) #19
  br label %92

80:                                               ; preds = %1
  %81 = getelementptr inbounds nuw i8, ptr %0, i64 24
  %82 = load i32, ptr %81, align 8, !tbaa !22
  %83 = load volatile i32, ptr @current_time, align 4, !tbaa !22
  %84 = add i32 %83, -60
  %85 = icmp ult i32 %82, %84
  br i1 %85, label %86, label %92

86:                                               ; preds = %80
  %87 = getelementptr inbounds nuw i8, ptr %0, i64 38
  %88 = load i16, ptr %87, align 2, !tbaa !31
  %89 = and i16 %88, 1
  %.not = icmp eq i16 %89, 0
  br i1 %.not, label %92, label %90

90:                                               ; preds = %86
  %91 = load volatile i32, ptr @current_time, align 4, !tbaa !22
  store i32 %91, ptr %81, align 8, !tbaa !22
  tail call fastcc void @item_unlink_q(ptr noundef nonnull %0)
  tail call fastcc void @item_link_q(ptr noundef nonnull %0)
  br label %92

92:                                               ; preds = %9, %80, %90, %86, %4, %item_link_q_warm.exit
  ret void
}